; Function Attrs: nounwind uwtable
define dso_local zeroext i1 @Curl_xfer_needs_flush(ptr noundef %0) local_unnamed_addr #0 {
  %2 = getelementptr inbounds nuw i8, ptr %0, i64 24
  %3 = load ptr, ptr %2, align 8, !tbaa !87
  %4 = getelementptr inbounds nuw i8, ptr %3, i64 964
  %5 = load i32, ptr %4, align 4, !tbaa !88
  %.not = icmp eq i32 %5, -1
  br i1 %.not, label %11, label %6

6:                                                ; preds = %1
  %7 = getelementptr inbounds nuw i8, ptr %3, i64 572
  %8 = load i32, ptr %7, align 4, !tbaa !97
  %9 = icmp eq i32 %5, %8
  %10 = zext i1 %9 to i32
  br label %11

11:                                               ; preds = %6, %1
  %12 = phi i32 [ 0, %1 ], [ %10, %6 ]
  %13 = tail call zeroext i1 @Curl_conn_needs_flush(ptr noundef nonnull %0, i32 noundef %12) #6
  ret i1 %13
}